; Function Attrs: mustprogress uwtable
define hidden void @_ZN3smt5setup13setup_i_arithEv(ptr nocapture noundef nonnull readonly align 8 dereferenceable(33) %this) local_unnamed_addr #4 align 2 {
entry:
  %m_params = getelementptr inbounds i8, ptr %this, i64 16
  %0 = load ptr, ptr %m_params, align 8
  %m_arith_mode = getelementptr inbounds i8, ptr %0, i64 252
  %1 = load i32, ptr %m_arith_mode, align 4
  %cmp = icmp eq i32 %1, 2
  %2 = load ptr, ptr %this, align 8
  br i1 %cmp, label %if.then, label %_ZN3smt5setup15setup_lra_arithEv.exit

if.then:                                          ; preds = %entry
  %call = tail call noalias noundef ptr @_ZN6memory8allocateEm(i64 noundef 1544)
  %3 = load ptr, ptr %this, align 8
  tail call void @_ZN3smt12theory_arithINS_5i_extEEC1ERNS_7contextE(ptr noundef nonnull align 8 dereferenceable(1544) %call, ptr noundef nonnull align 8 dereferenceable(11616) %3)
  br label %if.end

_ZN3smt5setup15setup_lra_arithEv.exit:            ; preds = %entry
  %call4.i = tail call noalias noundef ptr @_ZN6memory8allocateEm(i64 noundef 72)
  %4 = load ptr, ptr %this, align 8
  tail call void @_ZN3smt10theory_lraC1ERNS_7contextE(ptr noundef nonnull align 8 dereferenceable(72) %call4.i, ptr noundef nonnull align 8 dereferenceable(11616) %4)
  br label %if.end

if.end:                                           ; preds = %_ZN3smt5setup15setup_lra_arithEv.exit, %if.then
  %call4.i.sink = phi ptr [ %call4.i, %_ZN3smt5setup15setup_lra_arithEv.exit ], [ %call, %if.then ]
  tail call void @_ZN3smt7context15register_pluginEPNS_6theoryE(ptr noundef nonnull align 8 dereferenceable(11616) %2, ptr noundef nonnull %call4.i.sink)
  ret void
}